target datalayout = "e-m:e-p270:32:32-p271:32:32-p272:64:64-i64:64-i128:128-f80:128-n8:16:32:64-S128"
target triple = "x86_64-pc-linux-gnu"

%class.MainApplication = type { %class.QApplication, %class.QTranslator, %class.QTranslator, i8, i8, [6 x i8], %class.QFont, %class.QFont, %class.QTimer, %class.QTimer, %class.QTimer, %class.QList.1, ptr, %class.QList.5, i32, %class.QIcon, %class.QIcon }
%class.QApplication = type { %class.QGuiApplication }
%class.QGuiApplication = type { %class.QCoreApplication }
%class.QCoreApplication = type { %class.QObject }
%class.QObject = type { ptr, %class.QScopedPointer }
%class.QScopedPointer = type { ptr }
%class.QTranslator = type { %class.QObject }
%class.QFont = type <{ %class.QExplicitlySharedDataPointer, i32, [4 x i8] }>
%class.QExplicitlySharedDataPointer = type { ptr }
%class.QTimer = type { %class.QObject }
%class.QList.1 = type { %struct.QArrayDataPointer.4 }
%struct.QArrayDataPointer.4 = type { ptr, ptr, i64 }
%class.QList.5 = type { %struct.QArrayDataPointer.8 }
%struct.QArrayDataPointer.8 = type { ptr, ptr, i64 }
%class.QIcon = type { ptr }

; Function Attrs: mustprogress nounwind uwtable
define linkonce_odr noundef double @_ZSt3powIdiEN9__gnu_cxx9__promoteIDTplcvNS1_IT_Xsr3std12__is_integerIS2_EE7__valueEE6__typeELi0EcvNS1_IT0_Xsr3std12__is_integerIS5_EE7__valueEE6__typeELi0EEXsr3std12__is_integerIS8_EE7__valueEE6__typeES2_S5_(double noundef %0, i32 noundef %1) #1 comdat {
  %3 = alloca double, align 8
  %4 = alloca i32, align 4
  store double %0, ptr %3, align 8
  store i32 %1, ptr %4, align 4
  %5 = load double, ptr %3, align 8
  %6 = load i32, ptr %4, align 4
  %7 = sitofp i32 %6 to double
  %8 = call double @pow(double noundef %5, double noundef %7) #2
  ret double %8
}

; Function Attrs: mustprogress nounwind uwtable
define linkonce_odr noundef nonnull align 8 dereferenceable(8) ptr @_Z4qMaxIdERKT_S2_S2_(ptr noundef nonnull align 8 dereferenceable(8) %0, ptr noundef nonnull align 8 dereferenceable(8) %1) #1 comdat {
  %3 = alloca ptr, align 8
  %4 = alloca ptr, align 8
  store ptr %0, ptr %3, align 8
  store ptr %1, ptr %4, align 8
  %5 = load ptr, ptr %3, align 8
  %6 = load double, ptr %5, align 8
  %7 = load ptr, ptr %4, align 8
  %8 = load double, ptr %7, align 8
  %9 = fcmp olt double %6, %8
  br i1 %9, label %10, label %12

10:                                               ; preds = %2
  %11 = load ptr, ptr %4, align 8
  br label %14

12:                                               ; preds = %2
  %13 = load ptr, ptr %3, align 8
  br label %14

14:                                               ; preds = %12, %10
  %15 = phi ptr [ %11, %10 ], [ %13, %12 ]
  ret ptr %15
}

; Function Attrs: mustprogress nounwind uwtable
define linkonce_odr noundef i32 @_Z6qRoundd(double noundef %0) #1 comdat {
  %2 = alloca double, align 8
  store double %0, ptr %2, align 8
  %3 = load double, ptr %2, align 8
  %4 = load double, ptr %2, align 8
  %5 = call double @llvm.copysign.f64(double 5.000000e-01, double %4)
  %6 = fadd double %3, %5
  %7 = fptosi double %6 to i32
  ret i32 %7
}

; Function Attrs: mustprogress uwtable
define linkonce_odr noundef double @_Z4qPowIdiEDaT_T0_(double noundef %0, i32 noundef %1) #4 comdat {
  %3 = alloca double, align 8
  %4 = alloca i32, align 4
  store double %0, ptr %3, align 8
  store i32 %1, ptr %4, align 4
  %5 = load double, ptr %3, align 8
  %6 = load i32, ptr %4, align 4
  %7 = call noundef double @_ZSt3powIdiEN9__gnu_cxx9__promoteIDTplcvNS1_IT_Xsr3std12__is_integerIS2_EE7__valueEE6__typeELi0EcvNS1_IT0_Xsr3std12__is_integerIS5_EE7__valueEE6__typeELi0EEXsr3std12__is_integerIS8_EE7__valueEE6__typeES2_S5_(double noundef %5, i32 noundef %6)
  ret double %7
}

; Function Attrs: mustprogress uwtable
define void @_ZN15MainApplication12zoomTextFontEi(ptr noundef nonnull align 8 dereferenceable(216) %0, i32 noundef %1) #4 align 2 personality ptr @__gxx_personality_v0 {
  %3 = alloca ptr, align 8
  %4 = alloca i32, align 4
  %5 = alloca double, align 8
  %6 = alloca double, align 8
  %7 = alloca %class.QFont, align 8
  %8 = alloca ptr, align 8
  %9 = alloca i32, align 4
  store ptr %0, ptr %3, align 8
  store i32 %1, ptr %4, align 4
  %10 = load ptr, ptr %3, align 8
  %11 = getelementptr inbounds %class.MainApplication, ptr %10, i32 0, i32 6
  %12 = call noundef i32 @_ZNK5QFont9pointSizeEv(ptr noundef nonnull align 8 dereferenceable(12) %11)
  %13 = mul i32 %12, 2
  %14 = sitofp i32 %13 to double
  %15 = load i32, ptr %4, align 4
  %16 = call noundef double @_Z4qPowIdiEDaT_T0_(double noundef 1.100000e+00, i32 noundef %15)
  %17 = fmul double %14, %16
  store double %17, ptr %5, align 8
  %18 = load double, ptr %5, align 8
  %19 = call noundef i32 @_Z6qRoundd(double noundef %18)
  %20 = sitofp i32 %19 to double
  %21 = fdiv double %20, 2.000000e+00
  store double %21, ptr %5, align 8
  store double 1.000000e+00, ptr %6, align 8
  %22 = call noundef nonnull align 8 dereferenceable(8) ptr @_Z4qMaxIdERKT_S2_S2_(ptr noundef nonnull align 8 dereferenceable(8) %5, ptr noundef nonnull align 8 dereferenceable(8) %6)
  %23 = load double, ptr %22, align 8
  store double %23, ptr %5, align 8
  %24 = getelementptr inbounds %class.MainApplication, ptr %10, i32 0, i32 6
  %25 = getelementptr inbounds %class.MainApplication, ptr %10, i32 0, i32 7
  %26 = call noundef nonnull align 8 dereferenceable(12) ptr @_ZN5QFontaSERKS_(ptr noundef nonnull align 8 dereferenceable(12) %25, ptr noundef nonnull align 8 dereferenceable(12) %24)
  %27 = getelementptr inbounds %class.MainApplication, ptr %10, i32 0, i32 7
  %28 = load double, ptr %5, align 8
  call void @_ZN5QFont13setPointSizeFEd(ptr noundef nonnull align 8 dereferenceable(12) %27, double noundef %28)
  %29 = getelementptr inbounds %class.MainApplication, ptr %10, i32 0, i32 7
  call void @_ZN15MainApplication17zoomMonospaceFontERK5QFont(ptr noundef nonnull align 8 dereferenceable(216) %10, ptr noundef nonnull align 8 dereferenceable(12) %29)
  call void @_ZN12QApplication4fontEv(ptr dead_on_unwind writable sret(%class.QFont) align 8 %7)
  %30 = load double, ptr %5, align 8
  invoke void @_ZN5QFont13setPointSizeFEd(ptr noundef nonnull align 8 dereferenceable(12) %7, double noundef %30)
          to label %31 unwind label %33

31:                                               ; preds = %2
  invoke void @_ZN15MainApplication15zoomRegularFontERK5QFont(ptr noundef nonnull align 8 dereferenceable(216) %10, ptr noundef nonnull align 8 dereferenceable(12) %7)
          to label %32 unwind label %33

32:                                               ; preds = %31
  call void @_ZN5QFontD1Ev(ptr noundef nonnull align 8 dereferenceable(12) %7) #2
  ret void

33:                                               ; preds = %31, %2
  %34 = landingpad { ptr, i32 }
          cleanup
  %35 = extractvalue { ptr, i32 } %34, 0
  store ptr %35, ptr %8, align 8
  %36 = extractvalue { ptr, i32 } %34, 1
  store i32 %36, ptr %9, align 4
  call void @_ZN5QFontD1Ev(ptr noundef nonnull align 8 dereferenceable(12) %7) #2
  br label %37

37:                                               ; preds = %33
  %38 = load ptr, ptr %8, align 8
  %39 = load i32, ptr %9, align 4
  %40 = insertvalue { ptr, i32 } poison, ptr %38, 0
  %41 = insertvalue { ptr, i32 } %40, i32 %39, 1
  resume { ptr, i32 } %41
}