; Function Attrs: mustprogress uwtable
define void @_ZN15MainApplication12zoomTextFontEi(ptr noundef nonnull align 8 dereferenceable(216) %0, i32 noundef %1) local_unnamed_addr #3 align 2 personality ptr @__gxx_personality_v0 {
  %3 = alloca %class.QFont, align 8
  %4 = getelementptr inbounds i8, ptr %0, i64 56
  %5 = tail call noundef i32 @_ZNK5QFont9pointSizeEv(ptr noundef nonnull align 8 dereferenceable(12) %4)
  %6 = shl i32 %5, 1
  %7 = sitofp i32 %6 to double
  %8 = sitofp i32 %1 to double
  %9 = tail call noundef double @pow(double noundef 1.100000e+00, double noundef %8) #26
  %10 = fmul double %9, %7
  %11 = tail call double @llvm.copysign.f64(double 5.000000e-01, double %10)
  %12 = fadd double %10, %11
  %13 = fptosi double %12 to i32
  %14 = sitofp i32 %13 to double
  %15 = fmul double %14, 5.000000e-01
  %16 = fcmp olt double %15, 1.000000e+00
  %.sroa.speculated = select i1 %16, double 1.000000e+00, double %15
  %17 = getelementptr inbounds i8, ptr %0, i64 72
  %18 = tail call noundef nonnull align 8 dereferenceable(12) ptr @_ZN5QFontaSERKS_(ptr noundef nonnull align 8 dereferenceable(12) %17, ptr noundef nonnull align 8 dereferenceable(12) %4)
  tail call void @_ZN5QFont13setPointSizeFEd(ptr noundef nonnull align 8 dereferenceable(12) %17, double noundef %.sroa.speculated)
  tail call void @_ZN15MainApplication17zoomMonospaceFontERK5QFont(ptr noundef nonnull align 8 dereferenceable(216) %0, ptr noundef nonnull align 8 dereferenceable(12) %17)
  call void @_ZN12QApplication4fontEv(ptr dead_on_unwind nonnull writable sret(%class.QFont) align 8 %3)
  invoke void @_ZN5QFont13setPointSizeFEd(ptr noundef nonnull align 8 dereferenceable(12) %3, double noundef %.sroa.speculated)
          to label %19 unwind label %21

19:                                               ; preds = %2
  invoke void @_ZN15MainApplication15zoomRegularFontERK5QFont(ptr noundef nonnull align 8 dereferenceable(216) %0, ptr noundef nonnull align 8 dereferenceable(12) %3)
          to label %20 unwind label %21

20:                                               ; preds = %19
  call void @_ZN5QFontD1Ev(ptr noundef nonnull align 8 dereferenceable(12) %3) #26
  ret void

21:                                               ; preds = %19, %2
  %22 = landingpad { ptr, i32 }
          cleanup
  call void @_ZN5QFontD1Ev(ptr noundef nonnull align 8 dereferenceable(12) %3) #26
  resume { ptr, i32 } %22
}